; Function Attrs: mustprogress uwtable
define hidden noundef i32 @_ZN4ncnn6Unfold10load_paramERKNS_9ParamDictE(ptr noundef nonnull align 8 captures(none) dereferenceable(252) initializes((208, 252)) %0, ptr noundef nonnull align 8 dereferenceable(16) %1) unnamed_addr #2 align 2 {
  %3 = tail call noundef i32 @_ZNK4ncnn9ParamDict3getEii(ptr noundef nonnull align 8 dereferenceable(16) %1, i32 noundef 1, i32 noundef 0)
  %4 = getelementptr inbounds nuw i8, ptr %0, i64 208
  store i32 %3, ptr %4, align 8, !tbaa !4
  %5 = tail call noundef i32 @_ZNK4ncnn9ParamDict3getEii(ptr noundef nonnull align 8 dereferenceable(16) %1, i32 noundef 11, i32 noundef %3)
  %6 = getelementptr inbounds nuw i8, ptr %0, i64 212
  store i32 %5, ptr %6, align 4, !tbaa !27
  %7 = tail call noundef i32 @_ZNK4ncnn9ParamDict3getEii(ptr noundef nonnull align 8 dereferenceable(16) %1, i32 noundef 2, i32 noundef 1)
  %8 = getelementptr inbounds nuw i8, ptr %0, i64 216
  store i32 %7, ptr %8, align 8, !tbaa !28
  %9 = tail call noundef i32 @_ZNK4ncnn9ParamDict3getEii(ptr noundef nonnull align 8 dereferenceable(16) %1, i32 noundef 12, i32 noundef %7)
  %10 = getelementptr inbounds nuw i8, ptr %0, i64 220
  store i32 %9, ptr %10, align 4, !tbaa !29
  %11 = tail call noundef i32 @_ZNK4ncnn9ParamDict3getEii(ptr noundef nonnull align 8 dereferenceable(16) %1, i32 noundef 3, i32 noundef 1)
  %12 = getelementptr inbounds nuw i8, ptr %0, i64 224
  store i32 %11, ptr %12, align 8, !tbaa !30
  %13 = tail call noundef i32 @_ZNK4ncnn9ParamDict3getEii(ptr noundef nonnull align 8 dereferenceable(16) %1, i32 noundef 13, i32 noundef %11)
  %14 = getelementptr inbounds nuw i8, ptr %0, i64 228
  store i32 %13, ptr %14, align 4, !tbaa !31
  %15 = tail call noundef i32 @_ZNK4ncnn9ParamDict3getEii(ptr noundef nonnull align 8 dereferenceable(16) %1, i32 noundef 4, i32 noundef 0)
  %16 = getelementptr inbounds nuw i8, ptr %0, i64 232
  store i32 %15, ptr %16, align 8, !tbaa !32
  %17 = tail call noundef i32 @_ZNK4ncnn9ParamDict3getEii(ptr noundef nonnull align 8 dereferenceable(16) %1, i32 noundef 15, i32 noundef %15)
  %18 = getelementptr inbounds nuw i8, ptr %0, i64 236
  store i32 %17, ptr %18, align 4, !tbaa !33
  %19 = load i32, ptr %16, align 8, !tbaa !32
  %20 = tail call noundef i32 @_ZNK4ncnn9ParamDict3getEii(ptr noundef nonnull align 8 dereferenceable(16) %1, i32 noundef 14, i32 noundef %19)
  %21 = getelementptr inbounds nuw i8, ptr %0, i64 240
  store i32 %20, ptr %21, align 8, !tbaa !34
  %22 = tail call noundef i32 @_ZNK4ncnn9ParamDict3getEii(ptr noundef nonnull align 8 dereferenceable(16) %1, i32 noundef 16, i32 noundef %20)
  %23 = getelementptr inbounds nuw i8, ptr %0, i64 244
  store i32 %22, ptr %23, align 4, !tbaa !35
  %24 = tail call fast noundef nofpclass(nan inf) float @_ZNK4ncnn9ParamDict3getEif(ptr noundef nonnull align 8 dereferenceable(16) %1, i32 noundef 18, float noundef nofpclass(nan inf) 0.000000e+00)
  %25 = getelementptr inbounds nuw i8, ptr %0, i64 248
  store float %24, ptr %25, align 8, !tbaa !36
  ret i32 0
}